target datalayout = "e-m:e-p270:32:32-p271:32:32-p272:64:64-i64:64-i128:128-f80:128-n8:16:32:64-S128"
target triple = "x86_64-pc-linux-gnu"

%"class.boost::urls::authority_view" = type { ptr, %"struct.boost::urls::detail::url_impl" }
%"struct.boost::urls::detail::url_impl" = type <{ ptr, [8 x i64], [7 x i64], i64, i64, [16 x i8], i16, [2 x i8], i32, i16, i8, [5 x i8] }>
%"class.boost::urls::ipv6_address" = type { %"struct.std::array.5" }
%"struct.std::array.5" = type { [16 x i8] }

; Function Attrs: mustprogress nounwind uwtable
define linkonce_odr hidden noundef nonnull align 1 dereferenceable(1) ptr @_ZNSt14__array_traitsIhLm16EE6_S_refERA16_Khm(ptr noundef nonnull align 1 dereferenceable(16) %0, i64 noundef %1) #2 comdat align 2 {
  %3 = alloca ptr, align 8
  %4 = alloca i64, align 8
  store ptr %0, ptr %3, align 8, !tbaa !7
  store i64 %1, ptr %4, align 8, !tbaa !24
  %5 = load ptr, ptr %3, align 8, !tbaa !7
  %6 = load i64, ptr %4, align 8, !tbaa !24
  %7 = getelementptr inbounds nuw [16 x i8], ptr %5, i64 0, i64 %6
  ret ptr %7
}

; Function Attrs: mustprogress nounwind willreturn memory(none) uwtable
define linkonce_odr hidden noundef i64 @_ZNKSt5arrayIhLm16EE4sizeEv(ptr noundef nonnull align 1 dereferenceable(16) %0) #11 comdat align 2 {
  %2 = alloca ptr, align 8
  store ptr %0, ptr %2, align 8, !tbaa !7
  ret i64 16
}

; Function Attrs: mustprogress nounwind uwtable
define linkonce_odr hidden noundef nonnull align 1 dereferenceable(1) ptr @_ZNSt5arrayIhLm16EEixEm(ptr noundef nonnull align 1 dereferenceable(16) %0, i64 noundef %1) #2 comdat align 2 {
  %3 = alloca ptr, align 8
  %4 = alloca i64, align 8
  store ptr %0, ptr %3, align 8, !tbaa !7
  store i64 %1, ptr %4, align 8, !tbaa !24
  %5 = load ptr, ptr %3, align 8
  %6 = getelementptr inbounds nuw %"struct.std::array.5", ptr %5, i32 0, i32 0
  %7 = load i64, ptr %4, align 8, !tbaa !24
  %8 = call noundef nonnull align 1 dereferenceable(1) ptr @_ZNSt14__array_traitsIhLm16EE6_S_refERA16_Khm(ptr noundef nonnull align 1 dereferenceable(16) %6, i64 noundef %7) #19
  ret ptr %8
}

; Function Attrs: mustprogress nounwind uwtable
define linkonce_odr hidden void @_ZN5boost4urls12ipv6_addressC2Ev(ptr noundef nonnull align 1 dereferenceable(16) %0) unnamed_addr #2 comdat align 2 {
  %2 = alloca ptr, align 8
  store ptr %0, ptr %2, align 8, !tbaa !7
  %3 = load ptr, ptr %2, align 8
  %4 = getelementptr inbounds nuw %"class.boost::urls::ipv6_address", ptr %3, i32 0, i32 0
  %5 = getelementptr inbounds nuw %"struct.std::array.5", ptr %4, i32 0, i32 0
  %6 = getelementptr inbounds i8, ptr %5, i64 16
  br label %7

7:                                                ; preds = %7, %1
  %8 = phi ptr [ %5, %1 ], [ %9, %7 ]
  store i8 0, ptr %8, align 1, !tbaa !27
  %9 = getelementptr inbounds i8, ptr %8, i64 1
  %10 = icmp eq ptr %9, %6
  br i1 %10, label %11, label %7

11:                                               ; preds = %7
  ret void
}

; Function Attrs: mustprogress nounwind uwtable
define { i64, i64 } @_ZNK5boost4urls14authority_view17host_ipv6_addressEv(ptr noundef nonnull align 8 dereferenceable(184) %0) #2 align 2 {
  %2 = alloca %"class.boost::urls::ipv6_address", align 1
  %3 = alloca ptr, align 8
  %4 = alloca %"struct.std::array.5", align 1
  store ptr %0, ptr %3, align 8, !tbaa !7
  %5 = load ptr, ptr %3, align 8
  %6 = getelementptr inbounds nuw %"class.boost::urls::authority_view", ptr %5, i32 0, i32 1
  %7 = getelementptr inbounds nuw %"struct.boost::urls::detail::url_impl", ptr %6, i32 0, i32 8
  %8 = load i32, ptr %7, align 4, !tbaa !41
  %9 = icmp ne i32 %8, 3
  br i1 %9, label %10, label %11

10:                                               ; preds = %1
  call void @llvm.memset.p0.i64(ptr align 1 %2, i8 0, i64 16, i1 false)
  call void @_ZN5boost4urls12ipv6_addressC2Ev(ptr noundef nonnull align 1 dereferenceable(16) %2) #19
  br label %17

11:                                               ; preds = %1
  call void @llvm.lifetime.start.p0(i64 16, ptr %4) #19
  call void @llvm.memset.p0.i64(ptr align 1 %4, i8 0, i64 16, i1 false)
  %12 = call noundef nonnull align 1 dereferenceable(1) ptr @_ZNSt5arrayIhLm16EEixEm(ptr noundef nonnull align 1 dereferenceable(16) %4, i64 noundef 0) #19
  %13 = getelementptr inbounds nuw %"class.boost::urls::authority_view", ptr %5, i32 0, i32 1
  %14 = getelementptr inbounds nuw %"struct.boost::urls::detail::url_impl", ptr %13, i32 0, i32 5
  %15 = getelementptr inbounds [16 x i8], ptr %14, i64 0, i64 0
  %16 = call noundef i64 @_ZNKSt5arrayIhLm16EE4sizeEv(ptr noundef nonnull align 1 dereferenceable(16) %4) #23
  call void @llvm.memcpy.p0.p0.i64(ptr align 1 %12, ptr align 8 %15, i64 %16, i1 false)
  call void @_ZN5boost4urls12ipv6_addressC1ERKSt5arrayIhLm16EE(ptr noundef nonnull align 1 dereferenceable(16) %2, ptr noundef nonnull align 1 dereferenceable(16) %4) #19
  call void @llvm.lifetime.end.p0(i64 16, ptr %4) #19
  br label %17

17:                                               ; preds = %11, %10
  %18 = getelementptr inbounds nuw %"class.boost::urls::ipv6_address", ptr %2, i32 0, i32 0
  %19 = getelementptr inbounds nuw %"struct.std::array.5", ptr %18, i32 0, i32 0
  %20 = load { i64, i64 }, ptr %19, align 1
  ret { i64, i64 } %20
}