; Function Attrs: mustprogress nounwind uwtable
define { i64, i64 } @_ZNK5boost4urls14authority_view17host_ipv6_addressEv(ptr nocapture noundef nonnull readonly align 8 dereferenceable(184) %0) local_unnamed_addr #3 align 2 {
  %2 = alloca %"class.boost::urls::ipv6_address", align 8
  %3 = alloca %"struct.std::array.5", align 1
  %4 = getelementptr inbounds nuw i8, ptr %0, i64 172
  %5 = load i32, ptr %4, align 4, !tbaa !72
  %.not = icmp eq i32 %5, 3
  br i1 %.not, label %6, label %8

6:                                                ; preds = %1
  call void @llvm.lifetime.start.p0(i64 16, ptr nonnull %3) #28
  %7 = getelementptr inbounds nuw i8, ptr %0, i64 152
  call void @llvm.memcpy.p0.p0.i64(ptr noundef nonnull align 1 dereferenceable(16) %3, ptr noundef nonnull align 8 dereferenceable(16) %7, i64 16, i1 false)
  call void @_ZN5boost4urls12ipv6_addressC1ERKSt5arrayIhLm16EE(ptr noundef nonnull align 1 dereferenceable(16) %2, ptr noundef nonnull align 1 dereferenceable(16) %3) #28
  call void @llvm.lifetime.end.p0(i64 16, ptr nonnull %3) #28
  %.fca.0.load.pre = load i64, ptr %2, align 8
  %.fca.1.gep.phi.trans.insert = getelementptr inbounds i8, ptr %2, i64 8
  %.fca.1.load.pre = load i64, ptr %.fca.1.gep.phi.trans.insert, align 8
  br label %8

8:                                                ; preds = %1, %6
  %.fca.1.load = phi i64 [ %.fca.1.load.pre, %6 ], [ 0, %1 ]
  %.fca.0.load = phi i64 [ %.fca.0.load.pre, %6 ], [ 0, %1 ]
  %.fca.0.insert = insertvalue { i64, i64 } poison, i64 %.fca.0.load, 0
  %.fca.1.insert = insertvalue { i64, i64 } %.fca.0.insert, i64 %.fca.1.load, 1
  ret { i64, i64 } %.fca.1.insert
}